; ModuleID = '6/1074.c'
source_filename = "6/1074.c"
target datalayout = "e-m:e-p270:32:32-p271:32:32-p272:64:64-i64:64-f80:128-n8:16:32:64-S128"
target triple = "x86_64-pc-linux-gnu"

@.str = private unnamed_addr constant [3 x i8] c"%d\00", align 1
@.str.1 = private unnamed_addr constant [6 x i8] c"%d %d\00", align 1
@.str.2 = private unnamed_addr constant [4 x i8] c"%d\0A\00", align 1

; Function Attrs: noinline nounwind uwtable
define dso_local i32 @main() #0 {
  %1 = alloca i32, align 4
  %2 = alloca i32, align 4
  %3 = alloca i32, align 4
  %4 = alloca i32, align 4
  %5 = alloca i32, align 4
  %6 = alloca i32, align 4
  %7 = alloca i32, align 4
  %8 = alloca i32, align 4
  %9 = alloca i32, align 4
  %10 = alloca i32, align 4
  %11 = alloca i32, align 4
  store i32 0, i32* %1, align 4
  %12 = call i32 (i8*, ...) @__isoc99_scanf(i8* getelementptr inbounds ([3 x i8], [3 x i8]* @.str, i64 0, i64 0), i32* %2)
  store i32 1, i32* %3, align 4
  br label %13

13:                                               ; preds = %58, %0
  %14 = load i32, i32* %3, align 4
  %15 = load i32, i32* %2, align 4
  %16 = icmp sle i32 %14, %15
  br i1 %16, label %17, label %61

17:                                               ; preds = %13
  store i32 0, i32* %11, align 4
  %18 = call i32 (i8*, ...) @__isoc99_scanf(i8* getelementptr inbounds ([6 x i8], [6 x i8]* @.str.1, i64 0, i64 0), i32* %10, i32* %9)
  store i32 1, i32* %7, align 4
  br label %19

19:                                               ; preds = %52, %17
  %20 = load i32, i32* %7, align 4
  %21 = load i32, i32* %10, align 4
  %22 = icmp sle i32 %20, %21
  br i1 %22, label %23, label %55

23:                                               ; preds = %19
  store i32 1, i32* %8, align 4
  br label %24

24:                                               ; preds = %48, %23
  %25 = load i32, i32* %8, align 4
  %26 = load i32, i32* %9, align 4
  %27 = icmp sle i32 %25, %26
  br i1 %27, label %28, label %51

28:                                               ; preds = %24
  %29 = call i32 (i8*, ...) @__isoc99_scanf(i8* getelementptr inbounds ([3 x i8], [3 x i8]* @.str, i64 0, i64 0), i32* %6)
  %30 = load i32, i32* %7, align 4
  %31 = icmp eq i32 %30, 1
  br i1 %31, label %43, label %32

32:                                               ; preds = %28
  %33 = load i32, i32* %7, align 4
  %34 = load i32, i32* %10, align 4
  %35 = icmp eq i32 %33, %34
  br i1 %35, label %43, label %36

36:                                               ; preds = %32
  %37 = load i32, i32* %8, align 4
  %38 = load i32, i32* %9, align 4
  %39 = icmp eq i32 %37, %38
  br i1 %39, label %43, label %40

40:                                               ; preds = %36
  %41 = load i32, i32* %8, align 4
  %42 = icmp eq i32 %41, 1
  br i1 %42, label %43, label %47

43:                                               ; preds = %40, %36, %32, %28
  %44 = load i32, i32* %6, align 4
  %45 = load i32, i32* %11, align 4
  %46 = add nsw i32 %45, %44
  store i32 %46, i32* %11, align 4
  br label %47

47:                                               ; preds = %43, %40
  br label %48

48:                                               ; preds = %47
  %49 = load i32, i32* %8, align 4
  %50 = add nsw i32 %49, 1
  store i32 %50, i32* %8, align 4
  br label %24

51:                                               ; preds = %24
  br label %52

52:                                               ; preds = %51
  %53 = load i32, i32* %7, align 4
  %54 = add nsw i32 %53, 1
  store i32 %54, i32* %7, align 4
  br label %19

55:                                               ; preds = %19
  %56 = load i32, i32* %11, align 4
  %57 = call i32 (i8*, ...) @printf(i8* getelementptr inbounds ([4 x i8], [4 x i8]* @.str.2, i64 0, i64 0), i32 %56)
  br label %58

58:                                               ; preds = %55
  %59 = load i32, i32* %3, align 4
  %60 = add nsw i32 %59, 1
  store i32 %60, i32* %3, align 4
  br label %13

61:                                               ; preds = %13
  %62 = load i32, i32* %1, align 4
  ret i32 %62
}

declare dso_local i32 @__isoc99_scanf(i8*, ...) #1

declare dso_local i32 @printf(i8*, ...) #1


!llvm.module.flags = !{!0}
!llvm.ident = !{!1}

!0 = !{i32 1, !"wchar_size", i32 4}
!1 = !{!"clang version 10.0.0-4ubuntu1 "}
